
bin/test/print_config.elf:     file format elf32-littleriscv

Contents of section .vectors:
 10000000 6f00c000 20000010 44000010           o... ...D...    
Contents of section .text._start:
 1000000c 17110000 130141ff 97110000 9381a1c4  ......A.........
 1000001c 6f00d007                             o...            
Contents of section .text:
 10000020 93075000 631cf500 93071000 23aff1fe  ..P.c.......#...
 10000030 f3271034 93874700 73901734 67800000  .'.4..G.s..4g...
 10000040 67800000 93027000 63165500 93020008  g.....p.c.U.....
 10000050 73b04230 67800000 b7c70402 83a5c7ff  s.B0g...........
 10000060 03a587ff 67800000 b7470402 23a2b700  ....g....G..#...
 10000070 23a0a700 67800000 130101ff 23248100  #...g.......#$..
 10000080 23261100 13040500 eff01ffd 3305a400  #&..........3...
 10000090 33348500 b7470402 3304b400 23a28700  34...G..3...#...
 100000a0 23a0a700 0f00f00f 73274030 f3270030  #.......s'@0.'.0
 100000b0 93060008 73a04630 73600430 73005010  ....s.F0s`.0s.P.
 100000c0 3377d700 63140700 73b04630 93f78700  3w..c...s.F0....
 100000d0 63940700 73700430 8320c100 03248100  c...sp.0. ...$..
 100000e0 13010101 67800000 93175500 3385a700  ....g.....U.3...
 100000f0 6ff09ff8 b7570003 03a70700 b345b700  o....W.......E..
 10000100 b3f5a500 b3c5e500 23a0b700 67800000  ........#...g...
 10000110 b7570003 03a70708 3367a700 23a0e708  .W......3g..#...
 10000120 67800000 b7570003 03a70708 1345f5ff  g....W.......E..
 10000130 3375e500 23a0a708 67800000 b7570003  3u..#...g....W..
 10000140 23a0a718 67800000 b7570003 23a0a720  #...g....W..#.. 
 10000150 67800000 b7570003 03a50710 67800000  g....W......g...
 10000160 b7570003 03a70738 3367a700 23a0e738  .W.....83g..#..8
 10000170 b7570003 03a70728 3367a700 23a0e728  .W.....(3g..#..(
 10000180 67800000 b7570003 83a60738 1347f5ff  g....W.....8.G..
 10000190 3377d700 23a0e738 b7570003 03a70728  3w..#..8.W.....(
 100001a0 3367a700 23a0e728 67800000 b7570003  3g..#..(g....W..
 100001b0 03a70728 1345f5ff 3375e500 23a0a728  ...(.E..3u..#..(
 100001c0 67800000 b7570003 03a50730 67800000  g....W.....0g...
 100001d0 37570003 83260700 93071000 b397a700  7W...&..........
 100001e0 b3e7d700 2320f700 67800000 37570003  ....# ..g...7W..
 100001f0 83260708 93071000 b397a700 b3e7d700  .&..............
 10000200 2320f708 67800000 37570003 83260708  # ..g...7W...&..
 10000210 93071000 b397a700 93c7f7ff b3f7d700  ................
 10000220 2320f708 67800000 37570003 83260718  # ..g...7W...&..
 10000230 93071000 b397a700 b3e7d700 2320f718  ............# ..
 10000240 67800000 37570003 83260718 93071000  g...7W...&......
 10000250 b397a700 93c7f7ff b3f7d700 2320f718  ............# ..
 10000260 67800000 93071000 b397a700 37570003  g...........7W..
 10000270 2320f720 67800000 b7570003 83a70710  # . g....W......
 10000280 33d5a700 13751500 67800000 37570003  3....u..g...7W..
 10000290 83260738 93071000 3395a700 b3e6a600  .&.8....3.......
 100002a0 2320d738 b7570003 03a70728 3365e500  # .8.W.....(3e..
 100002b0 23a0a728 67800000 37570003 83260738  #..(g...7W...&.8
 100002c0 93071000 3395a700 9347f5ff b3f7d700  ....3....G......
 100002d0 2320f738 b7570003 03a70728 3365e500  # .8.W.....(3e..
 100002e0 23a0a728 67800000 37570003 83260728  #..(g...7W...&.(
 100002f0 93071000 b397a700 93c7f7ff b3f7d700  ................
 10000300 2320f728 67800000 b7570003 83a70730  # .(g....W.....0
 10000310 33d5a700 13751500 67800000 b7b70003  3....u..g.......
 10000320 23aca70c 67800000 b7b70003 23a8a70c  #...g.......#...
 10000330 67800000 b7b70003 23a0a70e 67800000  g.......#...g...
 10000340 b7b60003 83a70600 630c0500 37170000  ........c...7...
 10000350 13070780 b3e7e700 23a0f600 67800000  ........#...g...
 10000360 37f7ffff 1307f77f b3f7e700 6ff0dffe  7...........o...
 10000370 b7b70003 23a8a70e 67800000 b7b70003  ....#...g.......
 10000380 23a4a70e 67800000 b7b70003 23aca70e  #...g.......#...
 10000390 67800000 b7b70003 03a54704 67800000  g.........G.g...
 100003a0 b7b70003 03a54708 67800000 b7b70003  ......G.g.......
 100003b0 83a74708 33b5a700 13451500 67800000  ..G.3....E..g...
 100003c0 130101fe 232c8100 13040500 13050000  ....#,..........
 100003d0 2326b100 2324c100 232e1100 eff05ff6  #&..#$..#....._.
 100003e0 8325c100 b7b70003 03268100 23acb70c  .%.......&..#...
 100003f0 23a8870c 23a0c70e 03a54704 93874708  #...#.....G...G.
 10000400 03a70700 e36ea7fe 8320c101 03248101  .....n... ...$..
 10000410 13010102 67800000 130101fd 23248102  ....g.......#$..
 10000420 13040500 13051000 232eb100 232cc100  ........#...#,..
 10000430 232ad100 2328e100 2326f100 23261102  #*..#(..#&..#&..
 10000440 eff01ff0 8325c101 37b50003 03268101  .....%..7....&..
 10000450 232cb50c 83264101 2328850c 03270101  #,...&A.#(...'..
 10000460 2320c50e 8327c100 2324d50e 2328e50e  # ...'..#$..#(..
 10000470 232cf50e 93050500 03254504 93874508  #,.......%E...E.
 10000480 03a70700 e36ea7fe 8320c102 03248102  .....n... ...$..
 10000490 13010103 67800000 b7a70003 03a50700  ....g...........
 100004a0 67800000 b7a70003 03a54700 67800000  g.........G.g...
 100004b0 b7a70003 03a58700 13751500 67800000  .........u..g...
 100004c0 b7a70003 03a58700 13551500 13751500  .........U...u..
 100004d0 67800000 b7a70003 23a0a700 67800000  g.......#...g...
 100004e0 b7a70003 23a2a700 67800000 b7a70003  ....#...g.......
 100004f0 83a68700 93878700 13f7e6ff 63040500  ............c...
 10000500 13e71600 23a0e700 67800000 b7a70003  ....#...g.......
 10000510 83a68700 93878700 13f7d6ff 63040500  ............c...
 10000520 13e72600 23a0e700 67800000 b7a70003  ..&.#...g.......
 10000530 13071000 23a6e700 67800000 b7a70003  ....#...g.......
 10000540 13072000 23a6e700 67800000 130101ff  .. .#...g.......
 10000550 23248100 13040500 13050000 23261100  #$..........#&..
 10000560 eff0dff8 b7a70003 23a00700 13051000  ........#.......
 10000570 eff0dff9 b7a70003 23a28700 03248100  ........#....$..
 10000580 8320c100 13051000 13010101 6ff01ff6  . ..........o...
 10000590 130101ff 23261100 23248100 23229100  ....#&..#$..#"..
 100005a0 f3244030 73240030 eff05ffa b7070100  .$@0s$.0.._.....
 100005b0 73a04730 73600430 73005010 1397f400  s.G0s`.0s.P.....
 100005c0 63440700 73b04730 13748400 63140400  cD..s.G0.t..c...
 100005d0 73700430 8320c100 03248100 83244100  sp.0. ...$...$A.
 100005e0 13010101 67800000 93070000 1386e1eb  ....g...........
 100005f0 639c0500 93070003 2300f500 93071000  c.......#.......
 10000600 13850700 67800000 93f6f500 b306d600  ....g...........
 10000610 83c60600 13870700 3307e500 93871700  ........3.......
 10000620 2300d700 93d54500 93f7f70f e39e05fc  #.....E.........
 10000630 6ff01ffd 130101fb 2322f104 93074103  o.......#"....A.
 10000640 23248102 23202103 232e3101 23261102  #$..# !.#.1.#&..
 10000650 23229102 232c4101 232a5101 13040500  #"..#,A.#*Q.....
 10000660 232ab102 232cc102 232ed102 2320e104  #*..#,..#...# ..
 10000670 23240105 23261105 2320f100 13095002  #$..#&..# ....P.
 10000680 93098007 03450400 63140502 8320c102  .....E..c.... ..
 10000690 03248102 83244102 03290102 8329c101  .$...$A..)...)..
 100006a0 032a8101 832a4101 13010105 67800000  .*...*A.....g...
 100006b0 631c2505 83471400 130a1400 63883701  c.%..G......c.7.
 100006c0 13040a00 13041400 6ff0dffb 83270100  ........o....'..
 100006d0 93044100 13850400 83a50700 13874700  ..A...........G.
 100006e0 2320e100 eff05ff0 13040500 930af0ff  # ...._.........
 100006f0 1304f4ff e30654fd b3878400 03c50700  ......T.........
 10000700 ef000019 6ff0dffe ef008018 6ff09ffb  ....o.......o...
 10000710 37270003 23020700 930600f8 2306d700  7'..#.......#...
 10000720 1306a000 2300c700 93070700 23020700  ....#.......#...
 10000730 13073000 2386e700 130770fc 2384e700  ..0.#.....p.#...
 10000740 13070002 2388e700 67800000 b7270003  ....#...g....'..
 10000750 03c54701 13751500 67800000 37270003  ..G..u..g...7'..
 10000760 13074701 83470700 93f70702 e38c07fe  ..G..G..........
 10000770 b7270003 2380a700 67800000 130101ff  .'..#...g.......
 10000780 23248100 23229100 23261100 13040500  #$..#"..#&......
 10000790 b304b500 631c9400 8320c100 03248100  ....c.... ...$..
 100007a0 83244100 13010101 67800000 03450400  .$A.....g....E..
 100007b0 13041400 eff09ffa 6ff0dffd b7270003  ........o....'..
 100007c0 93874701 03c70700 13770702 e30c07fe  ..G......w......
 100007d0 03c70700 13770704 e30607fe 67800000  .....w......g...
 100007e0 130101ff 23261100 eff05ffd b7270003  ....#&...._..'..
 100007f0 03c70701 13670701 2388e700 8320c100  .....g..#.... ..
 10000800 13010101 67800000 130101ff 23261100  ....g.......#&..
 10000810 eff0dffa b7270003 03c70701 1377f70e  .....'.......w..
 10000820 2388e700 8320c100 13010101 67800000  #.... ......g...
 10000830 37270003 13074701 83470700 93f71700  7'....G..G......
 10000840 e38c07fe b7270003 03c50700 67800000  .....'......g...
 10000850 130101ff 23248100 23229100 23261100  ....#$..#"..#&..
 10000860 13040500 b304b500 631c9400 8320c100  ........c.... ..
 10000870 03248100 83244100 13010101 67800000  .$...$A.....g...
 10000880 eff01ffb 2300a400 13041400 6ff0dffd  ....#.......o...
 10000890 6ff0dfec 6ff0dff9 130101fd 23248102  o...o.......#$..
 100008a0 23229102 23202103 232e3101 23286101  #"..# !.#.1.#(a.
 100008b0 23261102 232c4101 232a5101 23267101  #&..#,A.#*Q.#&q.
 100008c0 23248101 eff0dfe4 b7070003 03a44701  #$............G.
 100008d0 93545400 13595401 9357d400 93594401  .TT..YT..W...YD.
 100008e0 93f4f40f 13797900 13fb7700 93946400  .....yy...w...d.
 100008f0 93f91900 732a1030 9355c401 93851500  ....s*.0.U......
 10000900 17050000 1305c522 eff0dfd2 9355b401  .......".....U..
 10000910 93f51500 17050000 13054523 eff09fd1  ..........E#....
 10000920 17050000 1305c523 eff0dfd0 93071000  .......#........
 10000930 17050000 13050524 6304f902 93077000  .......$c.....p.
 10000940 17050000 13058523 630cf900 17050000  .......#c.......
 10000950 1305c521 63060900 17050000 13058522  ...!c.........."
 10000960 eff05fcd 17050000 13054522 eff09fcc  .._.......E"....
 10000970 13040000 930a1000 1309a001 b3978a00  ................
 10000980 b3f74701 63880700 13051404 1375f50f  ..G.c........u..
 10000990 eff01ff0 13041400 e31224ff 1305a000  ..........$.....
 100009a0 eff01fef 93850900 17050000 1305851e  ................
 100009b0 eff05fc8 93050b00 13860400 17050000  .._.............
 100009c0 1305851e eff01fc7 eff05fdf 17050000  .........._.....
 100009d0 1305851f eff01fc6 138461e7 138be1eb  ..........a.....
 100009e0 930b8001 130a0010 17050000 1305c51e  ................
 100009f0 eff05fc4 03250400 938ae1ff eff09fc3  .._..%..........
 10000a00 17050000 1305851d eff0dfc2 83244400  .............$D.
 10000a10 23af01fe 17050000 1305851c 83a70400  #...............
 10000a20 83a70a00 639c0702 b7070020 17050000  ....c...... ....
 10000a30 1305451b 6394f402 13052002 eff05fe5  ..E.c..... ..._.
 10000a40 13090000 23af01fe 03ac0400 83a70a00  ....#...........
 10000a50 63880704 17050000 13058519 13048400  c...............
 10000a60 eff05fbd e31264f9 eff05fd5 8320c102  .._...d..._.. ..
 10000a70 03248102 83244102 03290102 8329c101  .$...$A..)...)..
 10000a80 032a8101 832a4101 032b0101 832bc100  .*...*A..+...+..
 10000a90 032c8100 13050000 13010103 67800000  .,..........g...
 10000aa0 93090000 33553c01 1375f50f e30405fa  ....3U<..u......
 10000ab0 eff01fde 13091900 63887901 93898900  ........c.y.....
 10000ac0 e31249ff 6ff01ff9 93844400 e31c49f7  ..I.o.....D...I.
 10000ad0 6ff05ff8 f00b0010 00000000 fc0b0010  o._.............
 10000ae0 00000002 080c0010 00000402 140c0010  ................
 10000af0 00000003 200c0010 00200003 2c0c0010  .... .... ..,...
 10000b00 00500003 380c0010 00a00003 440c0010  .P..8.......D...
 10000b10 00b00003 500c0010 00000020 30313233  ....P...... 0123
 10000b20 34353637 38394142 43444546 48656c6c  456789ABCDEFHell
 10000b30 6f20576f 726c6420 66726f6d 2043726f  o World from Cro
 10000b40 63207625 78210a00 20206944 4d41456e  c v%x!..  iDMAEn
 10000b50 61626c65 3a202578 0a000000 2020436f  able: %x....  Co
 10000b60 72653a20 00000000 43564532 00000000  re: ....CVE2....
 10000b70 49626578 00000000 63757374 6f6d0000  Ibex....custom..
 10000b80 756e6b6e 6f776e00 2c205256 33320000  unknown., RV32..
 10000b90 2020504d 50456e61 626c653a 2025780a    PMPEnable: %x.
 10000ba0 00000000 20205352 414d3a20 25786820  ....  SRAM: %xh 
 10000bb0 62616e6b 73207820 25786820 776f7264  banks x %xh word
 10000bc0 730a0000 50657269 70686572 616c733a  s...Peripherals:
 10000bd0 0a000000 20200000 3a200000 6e6f7420  ....  ..: ..not 
 10000be0 70726573 656e740a 00000000 220a0000  present....."...
 10000bf0 44656275 67202020 00000000 426f6f74  Debug   ....Boot
 10000c00 726f6d20 00000000 434c494e 54202020  rom ....CLINT   
 10000c10 00000000 536f4320 4374726c 00000000  ....SoC Ctrl....
 10000c20 55415254 20202020 00000000 4750494f  UART    ....GPIO
 10000c30 20202020 00000000 54696d65 72202020      ....Timer   
 10000c40 00000000 69444d41 20202020 00000000  ....iDMA    ....
 10000c50 55736572 20524f4d 00                 User ROM.       
Contents of section .misc:
 10000c5c 00000000                             ....            

Disassembly of section .vectors:

10000000 <.vectors>:
10000000:	00c0006f          	j	1000000c <_start>
10000004:	0020                	.insn	2, 0x0020
10000006:	1000                	.insn	2, 0x1000
10000008:	0044                	.insn	2, 0x0044
1000000a:	1000                	.insn	2, 0x1000

Disassembly of section .text._start:

1000000c <_start>:
1000000c:	00001117          	auipc	sp,0x1
10000010:	ff410113          	addi	sp,sp,-12 # 10001000 <__stack_pointer$>
10000014:	00001197          	auipc	gp,0x1
10000018:	c4a18193          	addi	gp,gp,-950 # 10000c5e <__global_pointer$>
1000001c:	07d0006f          	j	10000898 <main>

Disassembly of section .text:

10000020 <croc_exception_handler>:
10000020:	00500793          	li	a5,5
10000024:	00f51c63          	bne	a0,a5,1000003c <croc_exception_handler+0x1c>
10000028:	00100793          	li	a5,1
1000002c:	fef1af23          	sw	a5,-2(gp) # 10000c5c <obi_error>
10000030:	341027f3          	csrr	a5,mepc
10000034:	00478793          	addi	a5,a5,4
10000038:	34179073          	csrw	mepc,a5
1000003c:	00008067          	ret
10000040:	00008067          	ret

10000044 <croc_interrupt_handler>:
10000044:	00700293          	li	t0,7
10000048:	00551663          	bne	a0,t0,10000054 <croc_interrupt_handler+0x10>
1000004c:	08000293          	li	t0,128
10000050:	3042b073          	csrc	mie,t0
10000054:	00008067          	ret

10000058 <clint_get_mtime>:
10000058:	0204c7b7          	lui	a5,0x204c
1000005c:	ffc7a583          	lw	a1,-4(a5) # 204bffc <_start-0xdfb4010>
10000060:	ff87a503          	lw	a0,-8(a5)
10000064:	00008067          	ret

10000068 <clint_set_mtimecmp>:
10000068:	020447b7          	lui	a5,0x2044
1000006c:	00b7a223          	sw	a1,4(a5) # 2044004 <_start-0xdfbc008>
10000070:	00a7a023          	sw	a0,0(a5)
10000074:	00008067          	ret

10000078 <clint_sleep_ticks>:
10000078:	ff010113          	addi	sp,sp,-16
1000007c:	00812423          	sw	s0,8(sp)
10000080:	00112623          	sw	ra,12(sp)
10000084:	00050413          	mv	s0,a0
10000088:	fd1ff0ef          	jal	10000058 <clint_get_mtime>
1000008c:	00a40533          	add	a0,s0,a0
10000090:	00853433          	sltu	s0,a0,s0
10000094:	020447b7          	lui	a5,0x2044
10000098:	00b40433          	add	s0,s0,a1
1000009c:	0087a223          	sw	s0,4(a5) # 2044004 <_start-0xdfbc008>
100000a0:	00a7a023          	sw	a0,0(a5)
100000a4:	0ff0000f          	fence
100000a8:	30402773          	csrr	a4,mie
100000ac:	300027f3          	csrr	a5,mstatus
100000b0:	08000693          	li	a3,128
100000b4:	3046a073          	csrs	mie,a3
100000b8:	30046073          	csrsi	mstatus,8
100000bc:	10500073          	wfi
100000c0:	00d77733          	and	a4,a4,a3
100000c4:	00071463          	bnez	a4,100000cc <clint_sleep_ticks+0x54>
100000c8:	3046b073          	csrc	mie,a3
100000cc:	0087f793          	andi	a5,a5,8
100000d0:	00079463          	bnez	a5,100000d8 <clint_sleep_ticks+0x60>
100000d4:	30047073          	csrci	mstatus,8
100000d8:	00c12083          	lw	ra,12(sp)
100000dc:	00812403          	lw	s0,8(sp)
100000e0:	01010113          	addi	sp,sp,16
100000e4:	00008067          	ret

100000e8 <clint_sleep_ms>:
100000e8:	00551793          	slli	a5,a0,0x5
100000ec:	00a78533          	add	a0,a5,a0
100000f0:	f89ff06f          	j	10000078 <clint_sleep_ticks>

100000f4 <gpio_set_direction>:
100000f4:	030057b7          	lui	a5,0x3005
100000f8:	0007a703          	lw	a4,0(a5) # 3005000 <_start-0xcffb00c>
100000fc:	00b745b3          	xor	a1,a4,a1
10000100:	00a5f5b3          	and	a1,a1,a0
10000104:	00e5c5b3          	xor	a1,a1,a4
10000108:	00b7a023          	sw	a1,0(a5)
1000010c:	00008067          	ret

10000110 <gpio_enable>:
10000110:	030057b7          	lui	a5,0x3005
10000114:	0807a703          	lw	a4,128(a5) # 3005080 <_start-0xcffaf8c>
10000118:	00a76733          	or	a4,a4,a0
1000011c:	08e7a023          	sw	a4,128(a5)
10000120:	00008067          	ret

10000124 <gpio_disable>:
10000124:	030057b7          	lui	a5,0x3005
10000128:	0807a703          	lw	a4,128(a5) # 3005080 <_start-0xcffaf8c>
1000012c:	fff54513          	not	a0,a0
10000130:	00e57533          	and	a0,a0,a4
10000134:	08a7a023          	sw	a0,128(a5)
10000138:	00008067          	ret

1000013c <gpio_write>:
1000013c:	030057b7          	lui	a5,0x3005
10000140:	18a7a023          	sw	a0,384(a5) # 3005180 <_start-0xcffae8c>
10000144:	00008067          	ret

10000148 <gpio_toggle>:
10000148:	030057b7          	lui	a5,0x3005
1000014c:	20a7a023          	sw	a0,512(a5) # 3005200 <_start-0xcffae0c>
10000150:	00008067          	ret

10000154 <gpio_read>:
10000154:	030057b7          	lui	a5,0x3005
10000158:	1007a503          	lw	a0,256(a5) # 3005100 <_start-0xcffaf0c>
1000015c:	00008067          	ret

10000160 <gpio_enable_rising_interrupts>:
10000160:	030057b7          	lui	a5,0x3005
10000164:	3807a703          	lw	a4,896(a5) # 3005380 <_start-0xcffac8c>
10000168:	00a76733          	or	a4,a4,a0
1000016c:	38e7a023          	sw	a4,896(a5)
10000170:	030057b7          	lui	a5,0x3005
10000174:	2807a703          	lw	a4,640(a5) # 3005280 <_start-0xcffad8c>
10000178:	00a76733          	or	a4,a4,a0
1000017c:	28e7a023          	sw	a4,640(a5)
10000180:	00008067          	ret

10000184 <gpio_enable_falling_interrupts>:
10000184:	030057b7          	lui	a5,0x3005
10000188:	3807a683          	lw	a3,896(a5) # 3005380 <_start-0xcffac8c>
1000018c:	fff54713          	not	a4,a0
10000190:	00d77733          	and	a4,a4,a3
10000194:	38e7a023          	sw	a4,896(a5)
10000198:	030057b7          	lui	a5,0x3005
1000019c:	2807a703          	lw	a4,640(a5) # 3005280 <_start-0xcffad8c>
100001a0:	00a76733          	or	a4,a4,a0
100001a4:	28e7a023          	sw	a4,640(a5)
100001a8:	00008067          	ret

100001ac <gpio_disable_interrupts>:
100001ac:	030057b7          	lui	a5,0x3005
100001b0:	2807a703          	lw	a4,640(a5) # 3005280 <_start-0xcffad8c>
100001b4:	fff54513          	not	a0,a0
100001b8:	00e57533          	and	a0,a0,a4
100001bc:	28a7a023          	sw	a0,640(a5)
100001c0:	00008067          	ret

100001c4 <gpio_get_interrupt_status>:
100001c4:	030057b7          	lui	a5,0x3005
100001c8:	3007a503          	lw	a0,768(a5) # 3005300 <_start-0xcffad0c>
100001cc:	00008067          	ret

100001d0 <gpio_pin_set_output>:
100001d0:	03005737          	lui	a4,0x3005
100001d4:	00072683          	lw	a3,0(a4) # 3005000 <_start-0xcffb00c>
100001d8:	00100793          	li	a5,1
100001dc:	00a797b3          	sll	a5,a5,a0
100001e0:	00d7e7b3          	or	a5,a5,a3
100001e4:	00f72023          	sw	a5,0(a4)
100001e8:	00008067          	ret

100001ec <gpio_pin_enable>:
100001ec:	03005737          	lui	a4,0x3005
100001f0:	08072683          	lw	a3,128(a4) # 3005080 <_start-0xcffaf8c>
100001f4:	00100793          	li	a5,1
100001f8:	00a797b3          	sll	a5,a5,a0
100001fc:	00d7e7b3          	or	a5,a5,a3
10000200:	08f72023          	sw	a5,128(a4)
10000204:	00008067          	ret

10000208 <gpio_pin_disable>:
10000208:	03005737          	lui	a4,0x3005
1000020c:	08072683          	lw	a3,128(a4) # 3005080 <_start-0xcffaf8c>
10000210:	00100793          	li	a5,1
10000214:	00a797b3          	sll	a5,a5,a0
10000218:	fff7c793          	not	a5,a5
1000021c:	00d7f7b3          	and	a5,a5,a3
10000220:	08f72023          	sw	a5,128(a4)
10000224:	00008067          	ret

10000228 <gpio_pin_set>:
10000228:	03005737          	lui	a4,0x3005
1000022c:	18072683          	lw	a3,384(a4) # 3005180 <_start-0xcffae8c>
10000230:	00100793          	li	a5,1
10000234:	00a797b3          	sll	a5,a5,a0
10000238:	00d7e7b3          	or	a5,a5,a3
1000023c:	18f72023          	sw	a5,384(a4)
10000240:	00008067          	ret

10000244 <gpio_pin_clear>:
10000244:	03005737          	lui	a4,0x3005
10000248:	18072683          	lw	a3,384(a4) # 3005180 <_start-0xcffae8c>
1000024c:	00100793          	li	a5,1
10000250:	00a797b3          	sll	a5,a5,a0
10000254:	fff7c793          	not	a5,a5
10000258:	00d7f7b3          	and	a5,a5,a3
1000025c:	18f72023          	sw	a5,384(a4)
10000260:	00008067          	ret

10000264 <gpio_pin_toggle>:
10000264:	00100793          	li	a5,1
10000268:	00a797b3          	sll	a5,a5,a0
1000026c:	03005737          	lui	a4,0x3005
10000270:	20f72023          	sw	a5,512(a4) # 3005200 <_start-0xcffae0c>
10000274:	00008067          	ret

10000278 <gpio_pin_read>:
10000278:	030057b7          	lui	a5,0x3005
1000027c:	1007a783          	lw	a5,256(a5) # 3005100 <_start-0xcffaf0c>
10000280:	00a7d533          	srl	a0,a5,a0
10000284:	00157513          	andi	a0,a0,1
10000288:	00008067          	ret

1000028c <gpio_pin_enable_rising_interrupt>:
1000028c:	03005737          	lui	a4,0x3005
10000290:	38072683          	lw	a3,896(a4) # 3005380 <_start-0xcffac8c>
10000294:	00100793          	li	a5,1
10000298:	00a79533          	sll	a0,a5,a0
1000029c:	00a6e6b3          	or	a3,a3,a0
100002a0:	38d72023          	sw	a3,896(a4)
100002a4:	030057b7          	lui	a5,0x3005
100002a8:	2807a703          	lw	a4,640(a5) # 3005280 <_start-0xcffad8c>
100002ac:	00e56533          	or	a0,a0,a4
100002b0:	28a7a023          	sw	a0,640(a5)
100002b4:	00008067          	ret

100002b8 <gpio_pin_enable_falling_interrupt>:
100002b8:	03005737          	lui	a4,0x3005
100002bc:	38072683          	lw	a3,896(a4) # 3005380 <_start-0xcffac8c>
100002c0:	00100793          	li	a5,1
100002c4:	00a79533          	sll	a0,a5,a0
100002c8:	fff54793          	not	a5,a0
100002cc:	00d7f7b3          	and	a5,a5,a3
100002d0:	38f72023          	sw	a5,896(a4)
100002d4:	030057b7          	lui	a5,0x3005
100002d8:	2807a703          	lw	a4,640(a5) # 3005280 <_start-0xcffad8c>
100002dc:	00e56533          	or	a0,a0,a4
100002e0:	28a7a023          	sw	a0,640(a5)
100002e4:	00008067          	ret

100002e8 <gpio_pin_disable_interrupts>:
100002e8:	03005737          	lui	a4,0x3005
100002ec:	28072683          	lw	a3,640(a4) # 3005280 <_start-0xcffad8c>
100002f0:	00100793          	li	a5,1
100002f4:	00a797b3          	sll	a5,a5,a0
100002f8:	fff7c793          	not	a5,a5
100002fc:	00d7f7b3          	and	a5,a5,a3
10000300:	28f72023          	sw	a5,640(a4)
10000304:	00008067          	ret

10000308 <gpio_pin_get_interrupt_status>:
10000308:	030057b7          	lui	a5,0x3005
1000030c:	3007a783          	lw	a5,768(a5) # 3005300 <_start-0xcffad0c>
10000310:	00a7d533          	srl	a0,a5,a0
10000314:	00157513          	andi	a0,a0,1
10000318:	00008067          	ret

1000031c <idma_set_src_addr>:
1000031c:	0300b7b7          	lui	a5,0x300b
10000320:	0ca7ac23          	sw	a0,216(a5) # 300b0d8 <_start-0xcff4f34>
10000324:	00008067          	ret

10000328 <idma_set_dst_addr>:
10000328:	0300b7b7          	lui	a5,0x300b
1000032c:	0ca7a823          	sw	a0,208(a5) # 300b0d0 <_start-0xcff4f3c>
10000330:	00008067          	ret

10000334 <idma_set_length>:
10000334:	0300b7b7          	lui	a5,0x300b
10000338:	0ea7a023          	sw	a0,224(a5) # 300b0e0 <_start-0xcff4f2c>
1000033c:	00008067          	ret

10000340 <idma_set_nd_enable>:
10000340:	0300b6b7          	lui	a3,0x300b
10000344:	0006a783          	lw	a5,0(a3) # 300b000 <_start-0xcff500c>
10000348:	00050c63          	beqz	a0,10000360 <idma_set_nd_enable+0x20>
1000034c:	00001737          	lui	a4,0x1
10000350:	80070713          	addi	a4,a4,-2048 # 800 <_start-0xffff80c>
10000354:	00e7e7b3          	or	a5,a5,a4
10000358:	00f6a023          	sw	a5,0(a3)
1000035c:	00008067          	ret
10000360:	fffff737          	lui	a4,0xfffff
10000364:	7ff70713          	addi	a4,a4,2047 # fffff7ff <__stack_pointer$+0xefffe7ff>
10000368:	00e7f7b3          	and	a5,a5,a4
1000036c:	fedff06f          	j	10000358 <idma_set_nd_enable+0x18>

10000370 <idma_set_src_stride>:
10000370:	0300b7b7          	lui	a5,0x300b
10000374:	0ea7a823          	sw	a0,240(a5) # 300b0f0 <_start-0xcff4f1c>
10000378:	00008067          	ret

1000037c <idma_set_dst_stride>:
1000037c:	0300b7b7          	lui	a5,0x300b
10000380:	0ea7a423          	sw	a0,232(a5) # 300b0e8 <_start-0xcff4f24>
10000384:	00008067          	ret

10000388 <idma_set_reps>:
10000388:	0300b7b7          	lui	a5,0x300b
1000038c:	0ea7ac23          	sw	a0,248(a5) # 300b0f8 <_start-0xcff4f14>
10000390:	00008067          	ret

10000394 <idma_launch>:
10000394:	0300b7b7          	lui	a5,0x300b
10000398:	0447a503          	lw	a0,68(a5) # 300b044 <_start-0xcff4fc8>
1000039c:	00008067          	ret

100003a0 <idma_done_id>:
100003a0:	0300b7b7          	lui	a5,0x300b
100003a4:	0847a503          	lw	a0,132(a5) # 300b084 <_start-0xcff4f88>
100003a8:	00008067          	ret

100003ac <idma_is_done>:
100003ac:	0300b7b7          	lui	a5,0x300b
100003b0:	0847a783          	lw	a5,132(a5) # 300b084 <_start-0xcff4f88>
100003b4:	00a7b533          	sltu	a0,a5,a0
100003b8:	00154513          	xori	a0,a0,1
100003bc:	00008067          	ret

100003c0 <idma_memcpy>:
100003c0:	fe010113          	addi	sp,sp,-32
100003c4:	00812c23          	sw	s0,24(sp)
100003c8:	00050413          	mv	s0,a0
100003cc:	00000513          	li	a0,0
100003d0:	00b12623          	sw	a1,12(sp)
100003d4:	00c12423          	sw	a2,8(sp)
100003d8:	00112e23          	sw	ra,28(sp)
100003dc:	f65ff0ef          	jal	10000340 <idma_set_nd_enable>
100003e0:	00c12583          	lw	a1,12(sp)
100003e4:	0300b7b7          	lui	a5,0x300b
100003e8:	00812603          	lw	a2,8(sp)
100003ec:	0cb7ac23          	sw	a1,216(a5) # 300b0d8 <_start-0xcff4f34>
100003f0:	0c87a823          	sw	s0,208(a5)
100003f4:	0ec7a023          	sw	a2,224(a5)
100003f8:	0447a503          	lw	a0,68(a5)
100003fc:	08478793          	addi	a5,a5,132
10000400:	0007a703          	lw	a4,0(a5)
10000404:	fea76ee3          	bltu	a4,a0,10000400 <idma_memcpy+0x40>
10000408:	01c12083          	lw	ra,28(sp)
1000040c:	01812403          	lw	s0,24(sp)
10000410:	02010113          	addi	sp,sp,32
10000414:	00008067          	ret

10000418 <idma_memcpy_2d>:
10000418:	fd010113          	addi	sp,sp,-48
1000041c:	02812423          	sw	s0,40(sp)
10000420:	00050413          	mv	s0,a0
10000424:	00100513          	li	a0,1
10000428:	00b12e23          	sw	a1,28(sp)
1000042c:	00c12c23          	sw	a2,24(sp)
10000430:	00d12a23          	sw	a3,20(sp)
10000434:	00e12823          	sw	a4,16(sp)
10000438:	00f12623          	sw	a5,12(sp)
1000043c:	02112623          	sw	ra,44(sp)
10000440:	f01ff0ef          	jal	10000340 <idma_set_nd_enable>
10000444:	01c12583          	lw	a1,28(sp)
10000448:	0300b537          	lui	a0,0x300b
1000044c:	01812603          	lw	a2,24(sp)
10000450:	0cb52c23          	sw	a1,216(a0) # 300b0d8 <_start-0xcff4f34>
10000454:	01412683          	lw	a3,20(sp)
10000458:	0c852823          	sw	s0,208(a0)
1000045c:	01012703          	lw	a4,16(sp)
10000460:	0ec52023          	sw	a2,224(a0)
10000464:	00c12783          	lw	a5,12(sp)
10000468:	0ed52423          	sw	a3,232(a0)
1000046c:	0ee52823          	sw	a4,240(a0)
10000470:	0ef52c23          	sw	a5,248(a0)
10000474:	00050593          	mv	a1,a0
10000478:	04452503          	lw	a0,68(a0)
1000047c:	08458793          	addi	a5,a1,132
10000480:	0007a703          	lw	a4,0(a5)
10000484:	fea76ee3          	bltu	a4,a0,10000480 <idma_memcpy_2d+0x68>
10000488:	02c12083          	lw	ra,44(sp)
1000048c:	02812403          	lw	s0,40(sp)
10000490:	03010113          	addi	sp,sp,48
10000494:	00008067          	ret

10000498 <obi_timer_get_count>:
10000498:	0300a7b7          	lui	a5,0x300a
1000049c:	0007a503          	lw	a0,0(a5) # 300a000 <_start-0xcff600c>
100004a0:	00008067          	ret

100004a4 <obi_timer_get_compare>:
100004a4:	0300a7b7          	lui	a5,0x300a
100004a8:	0047a503          	lw	a0,4(a5) # 300a004 <_start-0xcff6008>
100004ac:	00008067          	ret

100004b0 <obi_timer_get_enable>:
100004b0:	0300a7b7          	lui	a5,0x300a
100004b4:	0087a503          	lw	a0,8(a5) # 300a008 <_start-0xcff6004>
100004b8:	00157513          	andi	a0,a0,1
100004bc:	00008067          	ret

100004c0 <obi_timer_get_autoreset>:
100004c0:	0300a7b7          	lui	a5,0x300a
100004c4:	0087a503          	lw	a0,8(a5) # 300a008 <_start-0xcff6004>
100004c8:	00155513          	srli	a0,a0,0x1
100004cc:	00157513          	andi	a0,a0,1
100004d0:	00008067          	ret

100004d4 <obi_timer_set_count>:
100004d4:	0300a7b7          	lui	a5,0x300a
100004d8:	00a7a023          	sw	a0,0(a5) # 300a000 <_start-0xcff600c>
100004dc:	00008067          	ret

100004e0 <obi_timer_set_compare>:
100004e0:	0300a7b7          	lui	a5,0x300a
100004e4:	00a7a223          	sw	a0,4(a5) # 300a004 <_start-0xcff6008>
100004e8:	00008067          	ret

100004ec <obi_timer_set_enable>:
100004ec:	0300a7b7          	lui	a5,0x300a
100004f0:	0087a683          	lw	a3,8(a5) # 300a008 <_start-0xcff6004>
100004f4:	00878793          	addi	a5,a5,8
100004f8:	ffe6f713          	andi	a4,a3,-2
100004fc:	00050463          	beqz	a0,10000504 <obi_timer_set_enable+0x18>
10000500:	0016e713          	ori	a4,a3,1
10000504:	00e7a023          	sw	a4,0(a5)
10000508:	00008067          	ret

1000050c <obi_timer_set_autoreset>:
1000050c:	0300a7b7          	lui	a5,0x300a
10000510:	0087a683          	lw	a3,8(a5) # 300a008 <_start-0xcff6004>
10000514:	00878793          	addi	a5,a5,8
10000518:	ffd6f713          	andi	a4,a3,-3
1000051c:	00050463          	beqz	a0,10000524 <obi_timer_set_autoreset+0x18>
10000520:	0026e713          	ori	a4,a3,2
10000524:	00e7a023          	sw	a4,0(a5)
10000528:	00008067          	ret

1000052c <obi_timer_clear_expired>:
1000052c:	0300a7b7          	lui	a5,0x300a
10000530:	00100713          	li	a4,1
10000534:	00e7a623          	sw	a4,12(a5) # 300a00c <_start-0xcff6000>
10000538:	00008067          	ret

1000053c <obi_timer_clear_overflow>:
1000053c:	0300a7b7          	lui	a5,0x300a
10000540:	00200713          	li	a4,2
10000544:	00e7a623          	sw	a4,12(a5) # 300a00c <_start-0xcff6000>
10000548:	00008067          	ret

1000054c <obi_timer_set>:
1000054c:	ff010113          	addi	sp,sp,-16
10000550:	00812423          	sw	s0,8(sp)
10000554:	00050413          	mv	s0,a0
10000558:	00000513          	li	a0,0
1000055c:	00112623          	sw	ra,12(sp)
10000560:	f8dff0ef          	jal	100004ec <obi_timer_set_enable>
10000564:	0300a7b7          	lui	a5,0x300a
10000568:	0007a023          	sw	zero,0(a5) # 300a000 <_start-0xcff600c>
1000056c:	00100513          	li	a0,1
10000570:	f9dff0ef          	jal	1000050c <obi_timer_set_autoreset>
10000574:	0300a7b7          	lui	a5,0x300a
10000578:	0087a223          	sw	s0,4(a5) # 300a004 <_start-0xcff6008>
1000057c:	00812403          	lw	s0,8(sp)
10000580:	00c12083          	lw	ra,12(sp)
10000584:	00100513          	li	a0,1
10000588:	01010113          	addi	sp,sp,16
1000058c:	f61ff06f          	j	100004ec <obi_timer_set_enable>

10000590 <obi_timer_sleep>:
10000590:	ff010113          	addi	sp,sp,-16
10000594:	00112623          	sw	ra,12(sp)
10000598:	00812423          	sw	s0,8(sp)
1000059c:	00912223          	sw	s1,4(sp)
100005a0:	304024f3          	csrr	s1,mie
100005a4:	30002473          	csrr	s0,mstatus
100005a8:	fa5ff0ef          	jal	1000054c <obi_timer_set>
100005ac:	000107b7          	lui	a5,0x10
100005b0:	3047a073          	csrs	mie,a5
100005b4:	30046073          	csrsi	mstatus,8
100005b8:	10500073          	wfi
100005bc:	00f49713          	slli	a4,s1,0xf
100005c0:	00074463          	bltz	a4,100005c8 <obi_timer_sleep+0x38>
100005c4:	3047b073          	csrc	mie,a5
100005c8:	00847413          	andi	s0,s0,8
100005cc:	00041463          	bnez	s0,100005d4 <obi_timer_sleep+0x44>
100005d0:	30047073          	csrci	mstatus,8
100005d4:	00c12083          	lw	ra,12(sp)
100005d8:	00812403          	lw	s0,8(sp)
100005dc:	00412483          	lw	s1,4(sp)
100005e0:	01010113          	addi	sp,sp,16
100005e4:	00008067          	ret

100005e8 <format_hex32>:
100005e8:	00000793          	li	a5,0
100005ec:	ebe18613          	addi	a2,gp,-322 # 10000b1c <hex_symbols>
100005f0:	00059c63          	bnez	a1,10000608 <format_hex32+0x20>
100005f4:	03000793          	li	a5,48
100005f8:	00f50023          	sb	a5,0(a0)
100005fc:	00100793          	li	a5,1
10000600:	00078513          	mv	a0,a5
10000604:	00008067          	ret
10000608:	00f5f693          	andi	a3,a1,15
1000060c:	00d606b3          	add	a3,a2,a3
10000610:	0006c683          	lbu	a3,0(a3)
10000614:	00078713          	mv	a4,a5
10000618:	00e50733          	add	a4,a0,a4
1000061c:	00178793          	addi	a5,a5,1 # 10001 <_start-0xfff000b>
10000620:	00d70023          	sb	a3,0(a4)
10000624:	0045d593          	srli	a1,a1,0x4
10000628:	0ff7f793          	zext.b	a5,a5
1000062c:	fc059ee3          	bnez	a1,10000608 <format_hex32+0x20>
10000630:	fd1ff06f          	j	10000600 <format_hex32+0x18>

10000634 <printf>:
10000634:	fb010113          	addi	sp,sp,-80
10000638:	04f12223          	sw	a5,68(sp)
1000063c:	03410793          	addi	a5,sp,52
10000640:	02812423          	sw	s0,40(sp)
10000644:	03212023          	sw	s2,32(sp)
10000648:	01312e23          	sw	s3,28(sp)
1000064c:	02112623          	sw	ra,44(sp)
10000650:	02912223          	sw	s1,36(sp)
10000654:	01412c23          	sw	s4,24(sp)
10000658:	01512a23          	sw	s5,20(sp)
1000065c:	00050413          	mv	s0,a0
10000660:	02b12a23          	sw	a1,52(sp)
10000664:	02c12c23          	sw	a2,56(sp)
10000668:	02d12e23          	sw	a3,60(sp)
1000066c:	04e12023          	sw	a4,64(sp)
10000670:	05012423          	sw	a6,72(sp)
10000674:	05112623          	sw	a7,76(sp)
10000678:	00f12023          	sw	a5,0(sp)
1000067c:	02500913          	li	s2,37
10000680:	07800993          	li	s3,120
10000684:	00044503          	lbu	a0,0(s0)
10000688:	02051463          	bnez	a0,100006b0 <printf+0x7c>
1000068c:	02c12083          	lw	ra,44(sp)
10000690:	02812403          	lw	s0,40(sp)
10000694:	02412483          	lw	s1,36(sp)
10000698:	02012903          	lw	s2,32(sp)
1000069c:	01c12983          	lw	s3,28(sp)
100006a0:	01812a03          	lw	s4,24(sp)
100006a4:	01412a83          	lw	s5,20(sp)
100006a8:	05010113          	addi	sp,sp,80
100006ac:	00008067          	ret
100006b0:	05251c63          	bne	a0,s2,10000708 <printf+0xd4>
100006b4:	00144783          	lbu	a5,1(s0)
100006b8:	00140a13          	addi	s4,s0,1
100006bc:	01378863          	beq	a5,s3,100006cc <printf+0x98>
100006c0:	000a0413          	mv	s0,s4
100006c4:	00140413          	addi	s0,s0,1
100006c8:	fbdff06f          	j	10000684 <printf+0x50>
100006cc:	00012783          	lw	a5,0(sp)
100006d0:	00410493          	addi	s1,sp,4
100006d4:	00048513          	mv	a0,s1
100006d8:	0007a583          	lw	a1,0(a5)
100006dc:	00478713          	addi	a4,a5,4
100006e0:	00e12023          	sw	a4,0(sp)
100006e4:	f05ff0ef          	jal	100005e8 <format_hex32>
100006e8:	00050413          	mv	s0,a0
100006ec:	fff00a93          	li	s5,-1
100006f0:	fff40413          	addi	s0,s0,-1
100006f4:	fd5406e3          	beq	s0,s5,100006c0 <printf+0x8c>
100006f8:	008487b3          	add	a5,s1,s0
100006fc:	0007c503          	lbu	a0,0(a5)
10000700:	190000ef          	jal	10000890 <putchar>
10000704:	fedff06f          	j	100006f0 <printf+0xbc>
10000708:	188000ef          	jal	10000890 <putchar>
1000070c:	fb9ff06f          	j	100006c4 <printf+0x90>

10000710 <uart_init>:
10000710:	03002737          	lui	a4,0x3002
10000714:	00070223          	sb	zero,4(a4) # 3002004 <_start-0xcffe008>
10000718:	f8000693          	li	a3,-128
1000071c:	00d70623          	sb	a3,12(a4)
10000720:	00a00613          	li	a2,10
10000724:	00c70023          	sb	a2,0(a4)
10000728:	00070793          	mv	a5,a4
1000072c:	00070223          	sb	zero,4(a4)
10000730:	00300713          	li	a4,3
10000734:	00e78623          	sb	a4,12(a5)
10000738:	fc700713          	li	a4,-57
1000073c:	00e78423          	sb	a4,8(a5)
10000740:	02000713          	li	a4,32
10000744:	00e78823          	sb	a4,16(a5)
10000748:	00008067          	ret

1000074c <uart_read_ready>:
1000074c:	030027b7          	lui	a5,0x3002
10000750:	0147c503          	lbu	a0,20(a5) # 3002014 <_start-0xcffdff8>
10000754:	00157513          	andi	a0,a0,1
10000758:	00008067          	ret

1000075c <uart_write>:
1000075c:	03002737          	lui	a4,0x3002
10000760:	01470713          	addi	a4,a4,20 # 3002014 <_start-0xcffdff8>
10000764:	00074783          	lbu	a5,0(a4)
10000768:	0207f793          	andi	a5,a5,32
1000076c:	fe078ce3          	beqz	a5,10000764 <uart_write+0x8>
10000770:	030027b7          	lui	a5,0x3002
10000774:	00a78023          	sb	a0,0(a5) # 3002000 <_start-0xcffe00c>
10000778:	00008067          	ret

1000077c <uart_write_str>:
1000077c:	ff010113          	addi	sp,sp,-16
10000780:	00812423          	sw	s0,8(sp)
10000784:	00912223          	sw	s1,4(sp)
10000788:	00112623          	sw	ra,12(sp)
1000078c:	00050413          	mv	s0,a0
10000790:	00b504b3          	add	s1,a0,a1
10000794:	00941c63          	bne	s0,s1,100007ac <uart_write_str+0x30>
10000798:	00c12083          	lw	ra,12(sp)
1000079c:	00812403          	lw	s0,8(sp)
100007a0:	00412483          	lw	s1,4(sp)
100007a4:	01010113          	addi	sp,sp,16
100007a8:	00008067          	ret
100007ac:	00044503          	lbu	a0,0(s0)
100007b0:	00140413          	addi	s0,s0,1
100007b4:	fa9ff0ef          	jal	1000075c <uart_write>
100007b8:	fddff06f          	j	10000794 <uart_write_str+0x18>

100007bc <uart_write_flush>:
100007bc:	030027b7          	lui	a5,0x3002
100007c0:	01478793          	addi	a5,a5,20 # 3002014 <_start-0xcffdff8>
100007c4:	0007c703          	lbu	a4,0(a5)
100007c8:	02077713          	andi	a4,a4,32
100007cc:	fe070ce3          	beqz	a4,100007c4 <uart_write_flush+0x8>
100007d0:	0007c703          	lbu	a4,0(a5)
100007d4:	04077713          	andi	a4,a4,64
100007d8:	fe0706e3          	beqz	a4,100007c4 <uart_write_flush+0x8>
100007dc:	00008067          	ret

100007e0 <uart_loopback_enable>:
100007e0:	ff010113          	addi	sp,sp,-16
100007e4:	00112623          	sw	ra,12(sp)
100007e8:	fd5ff0ef          	jal	100007bc <uart_write_flush>
100007ec:	030027b7          	lui	a5,0x3002
100007f0:	0107c703          	lbu	a4,16(a5) # 3002010 <_start-0xcffdffc>
100007f4:	01076713          	ori	a4,a4,16
100007f8:	00e78823          	sb	a4,16(a5)
100007fc:	00c12083          	lw	ra,12(sp)
10000800:	01010113          	addi	sp,sp,16
10000804:	00008067          	ret

10000808 <uart_loopback_disable>:
10000808:	ff010113          	addi	sp,sp,-16
1000080c:	00112623          	sw	ra,12(sp)
10000810:	fadff0ef          	jal	100007bc <uart_write_flush>
10000814:	030027b7          	lui	a5,0x3002
10000818:	0107c703          	lbu	a4,16(a5) # 3002010 <_start-0xcffdffc>
1000081c:	0ef77713          	andi	a4,a4,239
10000820:	00e78823          	sb	a4,16(a5)
10000824:	00c12083          	lw	ra,12(sp)
10000828:	01010113          	addi	sp,sp,16
1000082c:	00008067          	ret

10000830 <uart_read>:
10000830:	03002737          	lui	a4,0x3002
10000834:	01470713          	addi	a4,a4,20 # 3002014 <_start-0xcffdff8>
10000838:	00074783          	lbu	a5,0(a4)
1000083c:	0017f793          	andi	a5,a5,1
10000840:	fe078ce3          	beqz	a5,10000838 <uart_read+0x8>
10000844:	030027b7          	lui	a5,0x3002
10000848:	0007c503          	lbu	a0,0(a5) # 3002000 <_start-0xcffe00c>
1000084c:	00008067          	ret

10000850 <uart_read_str>:
10000850:	ff010113          	addi	sp,sp,-16
10000854:	00812423          	sw	s0,8(sp)
10000858:	00912223          	sw	s1,4(sp)
1000085c:	00112623          	sw	ra,12(sp)
10000860:	00050413          	mv	s0,a0
10000864:	00b504b3          	add	s1,a0,a1
10000868:	00941c63          	bne	s0,s1,10000880 <uart_read_str+0x30>
1000086c:	00c12083          	lw	ra,12(sp)
10000870:	00812403          	lw	s0,8(sp)
10000874:	00412483          	lw	s1,4(sp)
10000878:	01010113          	addi	sp,sp,16
1000087c:	00008067          	ret
10000880:	fb1ff0ef          	jal	10000830 <uart_read>
10000884:	00a40023          	sb	a0,0(s0)
10000888:	00140413          	addi	s0,s0,1
1000088c:	fddff06f          	j	10000868 <uart_read_str+0x18>

10000890 <putchar>:
10000890:	ecdff06f          	j	1000075c <uart_write>

10000894 <getchar>:
10000894:	f9dff06f          	j	10000830 <uart_read>

10000898 <main>:
10000898:	fd010113          	addi	sp,sp,-48
1000089c:	02812423          	sw	s0,40(sp)
100008a0:	02912223          	sw	s1,36(sp)
100008a4:	03212023          	sw	s2,32(sp)
100008a8:	01312e23          	sw	s3,28(sp)
100008ac:	01612823          	sw	s6,16(sp)
100008b0:	02112623          	sw	ra,44(sp)
100008b4:	01412c23          	sw	s4,24(sp)
100008b8:	01512a23          	sw	s5,20(sp)
100008bc:	01712623          	sw	s7,12(sp)
100008c0:	01812423          	sw	s8,8(sp)
100008c4:	e4dff0ef          	jal	10000710 <uart_init>
100008c8:	030007b7          	lui	a5,0x3000
100008cc:	0147a403          	lw	s0,20(a5) # 3000014 <_start-0xcfffff8>
100008d0:	00545493          	srli	s1,s0,0x5
100008d4:	01545913          	srli	s2,s0,0x15
100008d8:	00d45793          	srli	a5,s0,0xd
100008dc:	01445993          	srli	s3,s0,0x14
100008e0:	0ff4f493          	zext.b	s1,s1
100008e4:	00797913          	andi	s2,s2,7
100008e8:	0077fb13          	andi	s6,a5,7
100008ec:	00649493          	slli	s1,s1,0x6
100008f0:	0019f993          	andi	s3,s3,1
100008f4:	30102a73          	csrr	s4,misa
100008f8:	01c45593          	srli	a1,s0,0x1c
100008fc:	00158593          	addi	a1,a1,1
10000900:	00000517          	auipc	a0,0x0
10000904:	22c50513          	addi	a0,a0,556 # 10000b2c <hex_symbols+0x10>
10000908:	d2dff0ef          	jal	10000634 <printf>
1000090c:	01b45593          	srli	a1,s0,0x1b
10000910:	0015f593          	andi	a1,a1,1
10000914:	00000517          	auipc	a0,0x0
10000918:	23450513          	addi	a0,a0,564 # 10000b48 <hex_symbols+0x2c>
1000091c:	d19ff0ef          	jal	10000634 <printf>
10000920:	00000517          	auipc	a0,0x0
10000924:	23c50513          	addi	a0,a0,572 # 10000b5c <hex_symbols+0x40>
10000928:	d0dff0ef          	jal	10000634 <printf>
1000092c:	00100793          	li	a5,1
10000930:	00000517          	auipc	a0,0x0
10000934:	24050513          	addi	a0,a0,576 # 10000b70 <hex_symbols+0x54>
10000938:	02f90463          	beq	s2,a5,10000960 <main+0xc8>
1000093c:	00700793          	li	a5,7
10000940:	00000517          	auipc	a0,0x0
10000944:	23850513          	addi	a0,a0,568 # 10000b78 <hex_symbols+0x5c>
10000948:	00f90c63          	beq	s2,a5,10000960 <main+0xc8>
1000094c:	00000517          	auipc	a0,0x0
10000950:	21c50513          	addi	a0,a0,540 # 10000b68 <hex_symbols+0x4c>
10000954:	00090663          	beqz	s2,10000960 <main+0xc8>
10000958:	00000517          	auipc	a0,0x0
1000095c:	22850513          	addi	a0,a0,552 # 10000b80 <hex_symbols+0x64>
10000960:	cd5ff0ef          	jal	10000634 <printf>
10000964:	00000517          	auipc	a0,0x0
10000968:	22450513          	addi	a0,a0,548 # 10000b88 <hex_symbols+0x6c>
1000096c:	cc9ff0ef          	jal	10000634 <printf>
10000970:	00000413          	li	s0,0
10000974:	00100a93          	li	s5,1
10000978:	01a00913          	li	s2,26
1000097c:	008a97b3          	sll	a5,s5,s0
10000980:	0147f7b3          	and	a5,a5,s4
10000984:	00078863          	beqz	a5,10000994 <main+0xfc>
10000988:	04140513          	addi	a0,s0,65
1000098c:	0ff57513          	zext.b	a0,a0
10000990:	f01ff0ef          	jal	10000890 <putchar>
10000994:	00140413          	addi	s0,s0,1
10000998:	ff2412e3          	bne	s0,s2,1000097c <main+0xe4>
1000099c:	00a00513          	li	a0,10
100009a0:	ef1ff0ef          	jal	10000890 <putchar>
100009a4:	00098593          	mv	a1,s3
100009a8:	00000517          	auipc	a0,0x0
100009ac:	1e850513          	addi	a0,a0,488 # 10000b90 <hex_symbols+0x74>
100009b0:	c85ff0ef          	jal	10000634 <printf>
100009b4:	000b0593          	mv	a1,s6
100009b8:	00048613          	mv	a2,s1
100009bc:	00000517          	auipc	a0,0x0
100009c0:	1e850513          	addi	a0,a0,488 # 10000ba4 <hex_symbols+0x88>
100009c4:	c71ff0ef          	jal	10000634 <printf>
100009c8:	df5ff0ef          	jal	100007bc <uart_write_flush>
100009cc:	00000517          	auipc	a0,0x0
100009d0:	1f850513          	addi	a0,a0,504 # 10000bc4 <hex_symbols+0xa8>
100009d4:	c61ff0ef          	jal	10000634 <printf>
100009d8:	e7618413          	addi	s0,gp,-394 # 10000ad4 <peripherals>
100009dc:	ebe18b13          	addi	s6,gp,-322 # 10000b1c <hex_symbols>
100009e0:	01800b93          	li	s7,24
100009e4:	10000a13          	li	s4,256
100009e8:	00000517          	auipc	a0,0x0
100009ec:	1ec50513          	addi	a0,a0,492 # 10000bd4 <hex_symbols+0xb8>
100009f0:	c45ff0ef          	jal	10000634 <printf>
100009f4:	00042503          	lw	a0,0(s0)
100009f8:	ffe18a93          	addi	s5,gp,-2 # 10000c5c <obi_error>
100009fc:	c39ff0ef          	jal	10000634 <printf>
10000a00:	00000517          	auipc	a0,0x0
10000a04:	1d850513          	addi	a0,a0,472 # 10000bd8 <hex_symbols+0xbc>
10000a08:	c2dff0ef          	jal	10000634 <printf>
10000a0c:	00442483          	lw	s1,4(s0)
10000a10:	fe01af23          	sw	zero,-2(gp) # 10000c5c <obi_error>
10000a14:	00000517          	auipc	a0,0x0
10000a18:	1c850513          	addi	a0,a0,456 # 10000bdc <hex_symbols+0xc0>
10000a1c:	0004a783          	lw	a5,0(s1)
10000a20:	000aa783          	lw	a5,0(s5)
10000a24:	02079c63          	bnez	a5,10000a5c <main+0x1c4>
10000a28:	200007b7          	lui	a5,0x20000
10000a2c:	00000517          	auipc	a0,0x0
10000a30:	1b450513          	addi	a0,a0,436 # 10000be0 <hex_symbols+0xc4>
10000a34:	02f49463          	bne	s1,a5,10000a5c <main+0x1c4>
10000a38:	02200513          	li	a0,34
10000a3c:	e55ff0ef          	jal	10000890 <putchar>
10000a40:	00000913          	li	s2,0
10000a44:	fe01af23          	sw	zero,-2(gp) # 10000c5c <obi_error>
10000a48:	0004ac03          	lw	s8,0(s1)
10000a4c:	000aa783          	lw	a5,0(s5)
10000a50:	04078863          	beqz	a5,10000aa0 <main+0x208>
10000a54:	00000517          	auipc	a0,0x0
10000a58:	19850513          	addi	a0,a0,408 # 10000bec <hex_symbols+0xd0>
10000a5c:	00840413          	addi	s0,s0,8
10000a60:	bd5ff0ef          	jal	10000634 <printf>
10000a64:	f96412e3          	bne	s0,s6,100009e8 <main+0x150>
10000a68:	d55ff0ef          	jal	100007bc <uart_write_flush>
10000a6c:	02c12083          	lw	ra,44(sp)
10000a70:	02812403          	lw	s0,40(sp)
10000a74:	02412483          	lw	s1,36(sp)
10000a78:	02012903          	lw	s2,32(sp)
10000a7c:	01c12983          	lw	s3,28(sp)
10000a80:	01812a03          	lw	s4,24(sp)
10000a84:	01412a83          	lw	s5,20(sp)
10000a88:	01012b03          	lw	s6,16(sp)
10000a8c:	00c12b83          	lw	s7,12(sp)
10000a90:	00812c03          	lw	s8,8(sp)
10000a94:	00000513          	li	a0,0
10000a98:	03010113          	addi	sp,sp,48
10000a9c:	00008067          	ret
10000aa0:	00000993          	li	s3,0
10000aa4:	013c5533          	srl	a0,s8,s3
10000aa8:	0ff57513          	zext.b	a0,a0
10000aac:	fa0504e3          	beqz	a0,10000a54 <main+0x1bc>
10000ab0:	de1ff0ef          	jal	10000890 <putchar>
10000ab4:	00190913          	addi	s2,s2,1
10000ab8:	01798863          	beq	s3,s7,10000ac8 <main+0x230>
10000abc:	00898993          	addi	s3,s3,8
10000ac0:	ff4912e3          	bne	s2,s4,10000aa4 <main+0x20c>
10000ac4:	f91ff06f          	j	10000a54 <main+0x1bc>
10000ac8:	00448493          	addi	s1,s1,4
10000acc:	f7491ce3          	bne	s2,s4,10000a44 <main+0x1ac>
10000ad0:	f85ff06f          	j	10000a54 <main+0x1bc>

10000ad4 <peripherals>:
10000ad4:	0bf0                	.insn	2, 0x0bf0
10000ad6:	1000                	.insn	2, 0x1000
10000ad8:	0000                	.insn	2, 0x0000
10000ada:	0000                	.insn	2, 0x0000
10000adc:	0bfc                	.insn	2, 0x0bfc
10000ade:	1000                	.insn	2, 0x1000
10000ae0:	0000                	.insn	2, 0x0000
10000ae2:	0200                	.insn	2, 0x0200
10000ae4:	0c08                	.insn	2, 0x0c08
10000ae6:	1000                	.insn	2, 0x1000
10000ae8:	0000                	.insn	2, 0x0000
10000aea:	0204                	.insn	2, 0x0204
10000aec:	0c14                	.insn	2, 0x0c14
10000aee:	1000                	.insn	2, 0x1000
10000af0:	0000                	.insn	2, 0x0000
10000af2:	0300                	.insn	2, 0x0300
10000af4:	0c20                	.insn	2, 0x0c20
10000af6:	1000                	.insn	2, 0x1000
10000af8:	2000                	.insn	2, 0x2000
10000afa:	0300                	.insn	2, 0x0300
10000afc:	0c2c                	.insn	2, 0x0c2c
10000afe:	1000                	.insn	2, 0x1000
10000b00:	5000                	.insn	2, 0x5000
10000b02:	0300                	.insn	2, 0x0300
10000b04:	0c38                	.insn	2, 0x0c38
10000b06:	1000                	.insn	2, 0x1000
10000b08:	a000                	.insn	2, 0xa000
10000b0a:	0300                	.insn	2, 0x0300
10000b0c:	0c44                	.insn	2, 0x0c44
10000b0e:	1000                	.insn	2, 0x1000
10000b10:	b000                	.insn	2, 0xb000
10000b12:	0300                	.insn	2, 0x0300
10000b14:	0c50                	.insn	2, 0x0c50
10000b16:	1000                	.insn	2, 0x1000
10000b18:	0000                	.insn	2, 0x0000
10000b1a:	2000                	.insn	2, 0x2000

10000b1c <hex_symbols>:
10000b1c:	3130                	.insn	2, 0x3130
10000b1e:	3332                	.insn	2, 0x3332
10000b20:	3534                	.insn	2, 0x3534
10000b22:	3736                	.insn	2, 0x3736
10000b24:	3938                	.insn	2, 0x3938
10000b26:	4241                	.insn	2, 0x4241
10000b28:	46454443          	.insn	4, 0x46454443
10000b2c:	6548                	.insn	2, 0x6548
10000b2e:	6c6c                	.insn	2, 0x6c6c
10000b30:	6f57206f          	j	10073a24 <__stack_pointer$+0x72a24>
10000b34:	6c72                	.insn	2, 0x6c72
10000b36:	2064                	.insn	2, 0x2064
10000b38:	7266                	.insn	2, 0x7266
10000b3a:	43206d6f          	jal	s10,10006f6c <__stack_pointer$+0x5f6c>
10000b3e:	6f72                	.insn	2, 0x6f72
10000b40:	25762063          	.insn	4, 0x25762063
10000b44:	2178                	.insn	2, 0x2178
10000b46:	000a                	.insn	2, 0x000a
10000b48:	2020                	.insn	2, 0x2020
10000b4a:	4469                	.insn	2, 0x4469
10000b4c:	414d                	.insn	2, 0x414d
10000b4e:	6e45                	.insn	2, 0x6e45
10000b50:	6261                	.insn	2, 0x6261
10000b52:	656c                	.insn	2, 0x656c
10000b54:	203a                	.insn	2, 0x203a
10000b56:	7825                	.insn	2, 0x7825
10000b58:	000a                	.insn	2, 0x000a
10000b5a:	0000                	.insn	2, 0x0000
10000b5c:	2020                	.insn	2, 0x2020
10000b5e:	65726f43          	.insn	4, 0x65726f43
10000b62:	203a                	.insn	2, 0x203a
10000b64:	0000                	.insn	2, 0x0000
10000b66:	0000                	.insn	2, 0x0000
10000b68:	32455643          	.insn	4, 0x32455643
10000b6c:	0000                	.insn	2, 0x0000
10000b6e:	0000                	.insn	2, 0x0000
10000b70:	6249                	.insn	2, 0x6249
10000b72:	7865                	.insn	2, 0x7865
10000b74:	0000                	.insn	2, 0x0000
10000b76:	0000                	.insn	2, 0x0000
10000b78:	74737563          	bgeu	t1,t2,100012c2 <__stack_pointer$+0x2c2>
10000b7c:	00006d6f          	jal	s10,10006b7c <__stack_pointer$+0x5b7c>
10000b80:	6e75                	.insn	2, 0x6e75
10000b82:	776f6e6b          	.insn	4, 0x776f6e6b
10000b86:	006e                	.insn	2, 0x006e
10000b88:	202c                	.insn	2, 0x202c
10000b8a:	5652                	.insn	2, 0x5652
10000b8c:	00003233          	snez	tp,zero
10000b90:	2020                	.insn	2, 0x2020
10000b92:	4d50                	.insn	2, 0x4d50
10000b94:	4550                	.insn	2, 0x4550
10000b96:	616e                	.insn	2, 0x616e
10000b98:	6c62                	.insn	2, 0x6c62
10000b9a:	3a65                	.insn	2, 0x3a65
10000b9c:	2520                	.insn	2, 0x2520
10000b9e:	0a78                	.insn	2, 0x0a78
10000ba0:	0000                	.insn	2, 0x0000
10000ba2:	0000                	.insn	2, 0x0000
10000ba4:	2020                	.insn	2, 0x2020
10000ba6:	4d415253          	.insn	4, 0x4d415253
10000baa:	203a                	.insn	2, 0x203a
10000bac:	7825                	.insn	2, 0x7825
10000bae:	2068                	.insn	2, 0x2068
10000bb0:	6162                	.insn	2, 0x6162
10000bb2:	6b6e                	.insn	2, 0x6b6e
10000bb4:	20782073          	csrs	0x207,a6
10000bb8:	7825                	.insn	2, 0x7825
10000bba:	2068                	.insn	2, 0x2068
10000bbc:	64726f77          	.insn	4, 0x64726f77
10000bc0:	00000a73          	.insn	4, 0x0a73
10000bc4:	6550                	.insn	2, 0x6550
10000bc6:	6972                	.insn	2, 0x6972
10000bc8:	6870                	.insn	2, 0x6870
10000bca:	7265                	.insn	2, 0x7265
10000bcc:	6c61                	.insn	2, 0x6c61
10000bce:	000a3a73          	csrrc	s4,0x0,s4
10000bd2:	0000                	.insn	2, 0x0000
10000bd4:	2020                	.insn	2, 0x2020
10000bd6:	0000                	.insn	2, 0x0000
10000bd8:	203a                	.insn	2, 0x203a
10000bda:	0000                	.insn	2, 0x0000
10000bdc:	6f6e                	.insn	2, 0x6f6e
10000bde:	2074                	.insn	2, 0x2074
10000be0:	7270                	.insn	2, 0x7270
10000be2:	7365                	.insn	2, 0x7365
10000be4:	6e65                	.insn	2, 0x6e65
10000be6:	0a74                	.insn	2, 0x0a74
10000be8:	0000                	.insn	2, 0x0000
10000bea:	0000                	.insn	2, 0x0000
10000bec:	0a22                	.insn	2, 0x0a22
10000bee:	0000                	.insn	2, 0x0000
10000bf0:	6544                	.insn	2, 0x6544
10000bf2:	7562                	.insn	2, 0x7562
10000bf4:	20202067          	.insn	4, 0x20202067
10000bf8:	0000                	.insn	2, 0x0000
10000bfa:	0000                	.insn	2, 0x0000
10000bfc:	6f42                	.insn	2, 0x6f42
10000bfe:	6f72746f          	jal	s0,10028af4 <__stack_pointer$+0x27af4>
10000c02:	206d                	.insn	2, 0x206d
10000c04:	0000                	.insn	2, 0x0000
10000c06:	0000                	.insn	2, 0x0000
10000c08:	4e494c43          	.insn	4, 0x4e494c43
10000c0c:	2054                	.insn	2, 0x2054
10000c0e:	2020                	.insn	2, 0x2020
10000c10:	0000                	.insn	2, 0x0000
10000c12:	0000                	.insn	2, 0x0000
10000c14:	20436f53          	.insn	4, 0x20436f53
10000c18:	6c727443          	.insn	4, 0x6c727443
10000c1c:	0000                	.insn	2, 0x0000
10000c1e:	0000                	.insn	2, 0x0000
10000c20:	4155                	.insn	2, 0x4155
10000c22:	5452                	.insn	2, 0x5452
10000c24:	2020                	.insn	2, 0x2020
10000c26:	2020                	.insn	2, 0x2020
10000c28:	0000                	.insn	2, 0x0000
10000c2a:	0000                	.insn	2, 0x0000
10000c2c:	4f495047          	.insn	4, 0x4f495047
10000c30:	2020                	.insn	2, 0x2020
10000c32:	2020                	.insn	2, 0x2020
10000c34:	0000                	.insn	2, 0x0000
10000c36:	0000                	.insn	2, 0x0000
10000c38:	6954                	.insn	2, 0x6954
10000c3a:	656d                	.insn	2, 0x656d
10000c3c:	2072                	.insn	2, 0x2072
10000c3e:	2020                	.insn	2, 0x2020
10000c40:	0000                	.insn	2, 0x0000
10000c42:	0000                	.insn	2, 0x0000
10000c44:	4469                	.insn	2, 0x4469
10000c46:	414d                	.insn	2, 0x414d
10000c48:	2020                	.insn	2, 0x2020
10000c4a:	2020                	.insn	2, 0x2020
10000c4c:	0000                	.insn	2, 0x0000
10000c4e:	0000                	.insn	2, 0x0000
10000c50:	7355                	.insn	2, 0x7355
10000c52:	7265                	.insn	2, 0x7265
10000c54:	5220                	.insn	2, 0x5220
10000c56:	004d4f 	.3byte	0x004d4f

Disassembly of section .misc:

10000c5c <obi_error>:
10000c5c:	0000                	.insn	2, 0x0000
	...
